; ModuleID = '45/2533.c'
source_filename = "45/2533.c"
target datalayout = "e-m:e-p270:32:32-p271:32:32-p272:64:64-i64:64-f80:128-n8:16:32:64-S128"
target triple = "x86_64-pc-linux-gnu"

@.str = private unnamed_addr constant [5 x i8] c"%s%s\00", align 1
@.str.1 = private unnamed_addr constant [3 x i8] c"%d\00", align 1

; Function Attrs: noinline nounwind uwtable
define dso_local i8* @f(i8* %0, i8* %1) #0 {
  %3 = alloca i8*, align 8
  %4 = alloca i8*, align 8
  %5 = alloca i8*, align 8
  %6 = alloca i8*, align 8
  %7 = alloca i8*, align 8
  %8 = alloca i32, align 4
  %9 = alloca i32, align 4
  store i8* %0, i8** %4, align 8
  store i8* %1, i8** %5, align 8
  %10 = load i8*, i8** %4, align 8
  store i8* %10, i8** %6, align 8
  %11 = load i8*, i8** %4, align 8
  %12 = call i64 @strlen(i8* %11) #4
  %13 = trunc i64 %12 to i32
  store i32 %13, i32* %8, align 4
  %14 = load i8*, i8** %5, align 8
  %15 = load i8*, i8** %4, align 8
  %16 = getelementptr inbounds i8, i8* %15, i64 0
  %17 = load i8, i8* %16, align 1
  %18 = sext i8 %17 to i32
  %19 = call i8* @strchr(i8* %14, i32 %18) #4
  store i8* %19, i8** %7, align 8
  %20 = load i8*, i8** %7, align 8
  %21 = icmp eq i8* %20, null
  br i1 %21, label %22, label %24

22:                                               ; preds = %2
  %23 = load i8*, i8** %7, align 8
  store i8* %23, i8** %3, align 8
  br label %71

24:                                               ; preds = %2
  store i32 0, i32* %9, align 4
  br label %25

25:                                               ; preds = %42, %24
  %26 = load i8*, i8** %6, align 8
  %27 = load i8*, i8** %4, align 8
  %28 = load i32, i32* %8, align 4
  %29 = sext i32 %28 to i64
  %30 = getelementptr inbounds i8, i8* %27, i64 %29
  %31 = icmp ult i8* %26, %30
  br i1 %31, label %32, label %49

32:                                               ; preds = %25
  %33 = load i8*, i8** %6, align 8
  %34 = load i8, i8* %33, align 1
  %35 = sext i8 %34 to i32
  %36 = load i8*, i8** %7, align 8
  %37 = load i8, i8* %36, align 1
  %38 = sext i8 %37 to i32
  %39 = icmp ne i32 %35, %38
  br i1 %39, label %40, label %41

40:                                               ; preds = %32
  br label %49

41:                                               ; preds = %32
  br label %42

42:                                               ; preds = %41
  %43 = load i8*, i8** %6, align 8
  %44 = getelementptr inbounds i8, i8* %43, i32 1
  store i8* %44, i8** %6, align 8
  %45 = load i8*, i8** %7, align 8
  %46 = getelementptr inbounds i8, i8* %45, i32 1
  store i8* %46, i8** %7, align 8
  %47 = load i32, i32* %9, align 4
  %48 = add nsw i32 %47, 1
  store i32 %48, i32* %9, align 4
  br label %25

49:                                               ; preds = %40, %25
  %50 = load i8*, i8** %6, align 8
  %51 = load i8*, i8** %4, align 8
  %52 = load i32, i32* %8, align 4
  %53 = sext i32 %52 to i64
  %54 = getelementptr inbounds i8, i8* %51, i64 %53
  %55 = icmp eq i8* %50, %54
  br i1 %55, label %56, label %62

56:                                               ; preds = %49
  %57 = load i8*, i8** %7, align 8
  %58 = load i32, i32* %8, align 4
  %59 = sext i32 %58 to i64
  %60 = sub i64 0, %59
  %61 = getelementptr inbounds i8, i8* %57, i64 %60
  store i8* %61, i8** %3, align 8
  br label %71

62:                                               ; preds = %49
  %63 = load i8*, i8** %7, align 8
  %64 = load i32, i32* %9, align 4
  %65 = sext i32 %64 to i64
  %66 = sub i64 0, %65
  %67 = getelementptr inbounds i8, i8* %63, i64 %66
  store i8 0, i8* %67, align 1
  %68 = load i8*, i8** %4, align 8
  %69 = load i8*, i8** %5, align 8
  %70 = call i8* @f(i8* %68, i8* %69)
  store i8* %70, i8** %3, align 8
  br label %71

71:                                               ; preds = %62, %56, %22
  %72 = load i8*, i8** %3, align 8
  ret i8* %72
}

; Function Attrs: nounwind readonly
declare dso_local i64 @strlen(i8*) #1

; Function Attrs: nounwind readonly
declare dso_local i8* @strchr(i8*, i32) #1

; Function Attrs: noinline nounwind uwtable
define dso_local i32 @main() #0 {
  %1 = alloca i32, align 4
  %2 = alloca [51 x i8], align 16
  %3 = alloca [51 x i8], align 16
  %4 = alloca i32, align 4
  store i32 0, i32* %1, align 4
  %5 = bitcast [51 x i8]* %2 to i8*
  call void @llvm.memset.p0i8.i64(i8* align 16 %5, i8 0, i64 51, i1 false)
  %6 = bitcast [51 x i8]* %3 to i8*
  call void @llvm.memset.p0i8.i64(i8* align 16 %6, i8 0, i64 51, i1 false)
  %7 = getelementptr inbounds [51 x i8], [51 x i8]* %2, i64 0, i64 0
  %8 = getelementptr inbounds [51 x i8], [51 x i8]* %3, i64 0, i64 0
  %9 = call i32 (i8*, ...) @__isoc99_scanf(i8* getelementptr inbounds ([5 x i8], [5 x i8]* @.str, i64 0, i64 0), i8* %7, i8* %8)
  %10 = getelementptr inbounds [51 x i8], [51 x i8]* %2, i64 0, i64 0
  %11 = getelementptr inbounds [51 x i8], [51 x i8]* %3, i64 0, i64 0
  %12 = call i8* @f(i8* %10, i8* %11)
  %13 = getelementptr inbounds [51 x i8], [51 x i8]* %3, i64 0, i64 0
  %14 = ptrtoint i8* %12 to i64
  %15 = ptrtoint i8* %13 to i64
  %16 = sub i64 %14, %15
  %17 = trunc i64 %16 to i32
  store i32 %17, i32* %4, align 4
  %18 = load i32, i32* %4, align 4
  %19 = call i32 (i8*, ...) @printf(i8* getelementptr inbounds ([3 x i8], [3 x i8]* @.str.1, i64 0, i64 0), i32 %18)
  ret i32 0
}

; Function Attrs: argmemonly nounwind willreturn
declare void @llvm.memset.p0i8.i64(i8* nocapture writeonly, i8, i64, i1 immarg) #2

declare dso_local i32 @__isoc99_scanf(i8*, ...) #3

declare dso_local i32 @printf(i8*, ...) #3


!llvm.module.flags = !{!0}
!llvm.ident = !{!1}

!0 = !{i32 1, !"wchar_size", i32 4}
!1 = !{!"clang version 10.0.0-4ubuntu1 "}
